ccopy_reg
_reconstructor
p0
(cnetworkx.classes.graph
Graph
p1
c__builtin__
object
p2
Ntp3
Rp4
(dp5
S'node'
p6
(dp7
I1
(dp8
S'lat'
p9
F8.983158769547745e-06
sS'lon'
p10
I0
ssI2
(dp11
g9
F1.7966311610541563e-05
sg10
I0
ssI3
(dp12
g9
F2.694946445153538e-05
sg10
I0
ssI4
(dp13
g9
F3.59326172925292e-05
sg10
I0
ssI5
(dp14
g9
F4.4915770133523013e-05
sg10
I0
ssI6
(dp15
g9
F5.9285539262479955e-12
sg10
F1.567855942887398e-07
ssI7
(dp16
g9
F8.983158769547745e-06
sg10
F1.567855942887398e-07
ssI8
(dp17
g9
F1.7966311610541563e-05
sg10
F1.567855942887398e-07
ssI9
(dp18
g9
F2.694946445153538e-05
sg10
F1.567855942887398e-07
ssI10
(dp19
g9
F3.59326172925292e-05
sg10
F1.567855942887398e-07
ssI11
(dp20
g9
F4.4915770133523013e-05
sg10
F1.567855942887398e-07
ssI12
(dp21
g9
F5.3898922974516834e-05
sg10
F1.567855942887398e-07
ssI13
(dp22
g9
F5.9285539262479955e-12
sg10
F3.135711885774796e-07
ssI14
(dp23
g9
F8.983158769547745e-06
sg10
F3.135711885774796e-07
ssI15
(dp24
g9
F1.7966311610541563e-05
sg10
F3.135711885774796e-07
ssI16
(dp25
g9
F2.694946445153538e-05
sg10
F3.135711885774796e-07
ssI17
(dp26
g9
F3.59326172925292e-05
sg10
F3.135711885774796e-07
ssI18
(dp27
g9
F4.4915770133523013e-05
sg10
F3.135711885774796e-07
ssI19
(dp28
g9
F5.3898922974516834e-05
sg10
F3.135711885774796e-07
ssI20
(dp29
g9
F5.9285539262479955e-12
sg10
F4.703567828662194e-07
ssI21
(dp30
g9
F8.983158769547745e-06
sg10
F4.703567828662194e-07
ssI22
(dp31
g9
F1.7966311610541563e-05
sg10
F4.703567828662194e-07
ssI23
(dp32
g9
F2.694946445153538e-05
sg10
F4.703567828662194e-07
ssI24
(dp33
g9
F3.59326172925292e-05
sg10
F4.703567828662194e-07
ssI25
(dp34
g9
F4.4915770133523013e-05
sg10
F4.703567828662194e-07
ssI26
(dp35
g9
F5.3898922974516834e-05
sg10
F4.703567828662194e-07
ssI27
(dp36
g9
F5.9285539262479955e-12
sg10
F6.271423771549592e-07
ssI28
(dp37
g9
F8.983158769547745e-06
sg10
F6.271423771549592e-07
ssI29
(dp38
g9
F1.7966311610541563e-05
sg10
F6.271423771549592e-07
ssI30
(dp39
g9
F2.694946445153538e-05
sg10
F6.271423771549592e-07
ssI31
(dp40
g9
F3.59326172925292e-05
sg10
F6.271423771549592e-07
ssI32
(dp41
g9
F4.4915770133523013e-05
sg10
F6.271423771549592e-07
ssI33
(dp42
g9
F5.3898922974516834e-05
sg10
F6.271423771549592e-07
ssI34
(dp43
g9
F5.9285539262479955e-12
sg10
F7.83927971443699e-07
ssI35
(dp44
g9
F8.983158769547745e-06
sg10
F7.83927971443699e-07
ssI36
(dp45
g9
F1.7966311610541563e-05
sg10
F7.83927971443699e-07
ssI37
(dp46
g9
F2.694946445153538e-05
sg10
F7.83927971443699e-07
ssI38
(dp47
g9
F3.59326172925292e-05
sg10
F7.83927971443699e-07
ssI39
(dp48
g9
F4.4915770133523013e-05
sg10
F7.83927971443699e-07
ssI40
(dp49
g9
F5.3898922974516834e-05
sg10
F7.83927971443699e-07
ssI41
(dp50
g9
F8.983158769547745e-06
sg10
F9.407135657324388e-07
ssI42
(dp51
g9
F1.7966311610541563e-05
sg10
F9.407135657324388e-07
ssI43
(dp52
g9
F2.694946445153538e-05
sg10
F9.407135657324388e-07
ssI44
(dp53
g9
F3.59326172925292e-05
sg10
F9.407135657324388e-07
ssI45
(dp54
g9
F4.4915770133523013e-05
sg10
F9.407135657324388e-07
sssS'node_dict_factory'
p55
c__builtin__
dict
p56
sS'edge_attr_dict_factory'
p57
g56
sS'edge'
p58
(dp59
I1
(dp60
I7
(dp61
ssI2
(dp62
I8
(dp63
ssI3
(dp64
I9
(dp65
ssI4
(dp66
I10
(dp67
ssI5
(dp68
I11
(dp69
ssI6
(dp70
I7
(dp71
ssI7
(dp72
I8
(dp73
sI1
g61
sI14
(dp74
sI6
g71
ssI8
(dp75
I9
(dp76
sI2
g63
sI15
(dp77
sI7
g73
ssI9
(dp78
I8
g76
sI16
(dp79
sI10
(dp80
sI3
g65
ssI10
(dp81
I9
g80
sI11
(dp82
sI4
g67
sI17
(dp83
ssI11
(dp84
I10
g82
sI18
(dp85
sI12
(dp86
sI5
g69
ssI12
(dp87
I11
g86
ssI13
(dp88
I14
(dp89
ssI14
(dp90
I7
g74
sI21
(dp91
sI13
g89
sI15
(dp92
ssI15
(dp93
I16
(dp94
sI8
g77
sI22
(dp95
sI14
g92
ssI16
(dp96
I17
(dp97
sI23
(dp98
sI9
g79
sI15
g94
ssI17
(dp99
I16
g97
sI24
(dp100
sI18
(dp101
sI10
g83
ssI18
(dp102
I11
g85
sI17
g101
sI19
(dp103
sI25
(dp104
ssI19
(dp105
I18
g103
ssI20
(dp106
I21
(dp107
ssI21
(dp108
I28
(dp109
sI20
g107
sI14
g91
sI22
(dp110
ssI22
(dp111
I15
g95
sI29
(dp112
sI21
g110
sI23
(dp113
ssI23
(dp114
I24
(dp115
sI16
g98
sI30
(dp116
sI22
g113
ssI24
(dp117
I25
(dp118
sI31
(dp119
sI17
g100
sI23
g115
ssI25
(dp120
I24
g118
sI32
(dp121
sI26
(dp122
sI18
g104
ssI26
(dp123
I25
g122
ssI27
(dp124
I28
(dp125
ssI28
(dp126
I35
(dp127
sI27
g125
sI29
(dp128
sI21
g109
ssI29
(dp129
I36
(dp130
sI28
g128
sI22
g112
sI30
(dp131
ssI30
(dp132
I37
(dp133
sI23
g116
sI29
g131
sI31
(dp134
ssI31
(dp135
I32
(dp136
sI24
g119
sI38
(dp137
sI30
g134
ssI32
(dp138
I33
(dp139
sI39
(dp140
sI25
g121
sI31
g136
ssI33
(dp141
I32
g139
ssI34
(dp142
I35
(dp143
ssI35
(dp144
I28
g127
sI34
g143
sI36
(dp145
sI41
(dp146
ssI36
(dp147
I42
(dp148
sI35
g145
sI37
(dp149
sI29
g130
ssI37
(dp150
I43
(dp151
sI36
g149
sI30
g133
sI38
(dp152
ssI38
(dp153
I31
g137
sI44
(dp154
sI37
g152
sI39
(dp155
ssI39
(dp156
I40
(dp157
sI32
g140
sI45
(dp158
sI38
g155
ssI40
(dp159
I39
g157
ssI41
(dp160
I35
g146
ssI42
(dp161
I36
g148
ssI43
(dp162
I37
g151
ssI44
(dp163
I38
g154
ssI45
(dp164
I39
g158
sssS'graph'
p165
(dp166
sS'adjlist_dict_factory'
p167
g56
sS'adj'
p168
g59
sb.